target datalayout = "e-m:e-p270:32:32-p271:32:32-p272:64:64-i64:64-i128:128-f80:128-n8:16:32:64-S128"
target triple = "x86_64-pc-linux-gnu"

%struct.Aig_Man_t_ = type { ptr, ptr, ptr, ptr, ptr, ptr, ptr, %struct.Aig_Obj_t_, i32, i32, i32, i32, i32, i32, [7 x i32], i32, ptr, i32, ptr, i32, ptr, i32, i32, i32, ptr, i32, i32, i32, i32, i32, ptr, ptr, i32, ptr, ptr, i32, ptr, ptr, i32, i32, i32, ptr, ptr, ptr, ptr, ptr, ptr, ptr, ptr, ptr, ptr, ptr, ptr, ptr, ptr, i32, ptr, ptr, ptr, ptr, i32, i64, i64, i64, ptr, ptr }
%struct.Aig_Obj_t_ = type { %union.anon, ptr, ptr, i64, i32, i32, %union.anon.0 }
%union.anon = type { ptr }
%union.anon.0 = type { ptr }
%struct.Vec_Ptr_t_ = type { i32, i32, ptr }
%struct.Dch_Pars_t_ = type { i32, i32, i32, i32, i32, i32, i32, i32, i32, i32, i32, i32, i32, i32, i64, i32, i32 }
%struct.timespec = type { i64, i64 }

; Function Attrs: inlinehint nounwind uwtable
define internal void @Vec_PtrFree(ptr noundef %0) #3 {
  %2 = alloca ptr, align 8
  store ptr %0, ptr %2, align 8, !tbaa !38
  %3 = load ptr, ptr %2, align 8, !tbaa !38
  %4 = getelementptr inbounds nuw %struct.Vec_Ptr_t_, ptr %3, i32 0, i32 2
  %5 = load ptr, ptr %4, align 8, !tbaa !42
  %6 = icmp ne ptr %5, null
  br i1 %6, label %7, label %13

7:                                                ; preds = %1
  %8 = load ptr, ptr %2, align 8, !tbaa !38
  %9 = getelementptr inbounds nuw %struct.Vec_Ptr_t_, ptr %8, i32 0, i32 2
  %10 = load ptr, ptr %9, align 8, !tbaa !42
  call void @free(ptr noundef %10) #9
  %11 = load ptr, ptr %2, align 8, !tbaa !38
  %12 = getelementptr inbounds nuw %struct.Vec_Ptr_t_, ptr %11, i32 0, i32 2
  store ptr null, ptr %12, align 8, !tbaa !42
  br label %14

13:                                               ; preds = %1
  br label %14

14:                                               ; preds = %13, %7
  %15 = load ptr, ptr %2, align 8, !tbaa !38
  %16 = icmp ne ptr %15, null
  br i1 %16, label %17, label %19

17:                                               ; preds = %14
  %18 = load ptr, ptr %2, align 8, !tbaa !38
  call void @free(ptr noundef %18) #9
  store ptr null, ptr %2, align 8, !tbaa !38
  br label %20

19:                                               ; preds = %14
  br label %20

20:                                               ; preds = %19, %17
  ret void
}

; Function Attrs: inlinehint nounwind uwtable
define internal i64 @Abc_Clock() #3 {
  %1 = alloca i64, align 8
  %2 = alloca %struct.timespec, align 8
  %3 = alloca i32, align 4
  %4 = alloca i64, align 8
  call void @llvm.lifetime.start.p0(i64 16, ptr %2) #9
  %5 = call i32 @clock_gettime(i32 noundef 1, ptr noundef %2) #9
  %6 = icmp slt i32 %5, 0
  br i1 %6, label %7, label %8

7:                                                ; preds = %0
  store i64 -1, ptr %1, align 8
  store i32 1, ptr %3, align 4
  br label %19

8:                                                ; preds = %0
  call void @llvm.lifetime.start.p0(i64 8, ptr %4) #9
  %9 = getelementptr inbounds nuw %struct.timespec, ptr %2, i32 0, i32 0
  %10 = load i64, ptr %9, align 8, !tbaa !70
  %11 = mul nsw i64 %10, 1000000
  store i64 %11, ptr %4, align 8, !tbaa !25
  %12 = getelementptr inbounds nuw %struct.timespec, ptr %2, i32 0, i32 1
  %13 = load i64, ptr %12, align 8, !tbaa !72
  %14 = mul nsw i64 %13, 1000000
  %15 = sdiv i64 %14, 1000000000
  %16 = load i64, ptr %4, align 8, !tbaa !25
  %17 = add nsw i64 %16, %15
  store i64 %17, ptr %4, align 8, !tbaa !25
  %18 = load i64, ptr %4, align 8, !tbaa !25
  store i64 %18, ptr %1, align 8
  store i32 1, ptr %3, align 4
  call void @llvm.lifetime.end.p0(i64 8, ptr %4) #9
  br label %19

19:                                               ; preds = %8, %7
  call void @llvm.lifetime.end.p0(i64 16, ptr %2) #9
  %20 = load i64, ptr %1, align 8
  ret i64 %20
}

; Function Attrs: inlinehint nounwind uwtable
define internal ptr @Abc_UtilStrsav(ptr noundef %0) #3 {
  %2 = alloca ptr, align 8
  store ptr %0, ptr %2, align 8, !tbaa !46
  %3 = load ptr, ptr %2, align 8, !tbaa !46
  %4 = icmp ne ptr %3, null
  br i1 %4, label %5, label %13

5:                                                ; preds = %1
  %6 = load ptr, ptr %2, align 8, !tbaa !46
  %7 = call i64 @strlen(ptr noundef %6) #11
  %8 = add i64 %7, 1
  %9 = mul i64 1, %8
  %10 = call noalias ptr @malloc(i64 noundef %9) #10
  %11 = load ptr, ptr %2, align 8, !tbaa !46
  %12 = call ptr @strcpy(ptr noundef %10, ptr noundef %11) #9
  br label %14

13:                                               ; preds = %1
  br label %14

14:                                               ; preds = %13, %5
  %15 = phi ptr [ %12, %5 ], [ null, %13 ]
  ret ptr %15
}

; Function Attrs: nounwind uwtable
define ptr @Dar_ManChoiceNew(ptr noundef %0, ptr noundef %1) #0 {
  %3 = alloca ptr, align 8
  %4 = alloca ptr, align 8
  %5 = alloca ptr, align 8
  %6 = alloca ptr, align 8
  %7 = alloca ptr, align 8
  %8 = alloca ptr, align 8
  %9 = alloca ptr, align 8
  %10 = alloca ptr, align 8
  %11 = alloca ptr, align 8
  %12 = alloca i64, align 8
  store ptr %0, ptr %3, align 8, !tbaa !3
  store ptr %1, ptr %4, align 8, !tbaa !55
  call void @llvm.lifetime.start.p0(i64 8, ptr %5) #9
  call void @llvm.lifetime.start.p0(i64 8, ptr %6) #9
  call void @llvm.lifetime.start.p0(i64 8, ptr %7) #9
  call void @llvm.lifetime.start.p0(i64 8, ptr %8) #9
  call void @llvm.lifetime.start.p0(i64 8, ptr %9) #9
  call void @llvm.lifetime.start.p0(i64 8, ptr %10) #9
  call void @llvm.lifetime.start.p0(i64 8, ptr %11) #9
  call void @llvm.lifetime.start.p0(i64 8, ptr %12) #9
  %13 = load ptr, ptr %3, align 8, !tbaa !3
  %14 = getelementptr inbounds nuw %struct.Aig_Man_t_, ptr %13, i32 0, i32 44
  %15 = load ptr, ptr %14, align 8, !tbaa !62
  store ptr %15, ptr %9, align 8, !tbaa !43
  %16 = load ptr, ptr %3, align 8, !tbaa !3
  %17 = getelementptr inbounds nuw %struct.Aig_Man_t_, ptr %16, i32 0, i32 44
  store ptr null, ptr %17, align 8, !tbaa !62
  %18 = load ptr, ptr %3, align 8, !tbaa !3
  %19 = getelementptr inbounds nuw %struct.Aig_Man_t_, ptr %18, i32 0, i32 0
  %20 = load ptr, ptr %19, align 8, !tbaa !63
  %21 = call ptr @Abc_UtilStrsav(ptr noundef %20)
  store ptr %21, ptr %10, align 8, !tbaa !46
  %22 = load ptr, ptr %3, align 8, !tbaa !3
  %23 = getelementptr inbounds nuw %struct.Aig_Man_t_, ptr %22, i32 0, i32 1
  %24 = load ptr, ptr %23, align 8, !tbaa !64
  %25 = call ptr @Abc_UtilStrsav(ptr noundef %24)
  store ptr %25, ptr %11, align 8, !tbaa !46
  %26 = call i64 @Abc_Clock()
  store i64 %26, ptr %12, align 8, !tbaa !25
  %27 = load ptr, ptr %3, align 8, !tbaa !3
  %28 = call ptr @Aig_ManDupDfs(ptr noundef %27)
  %29 = load ptr, ptr %4, align 8, !tbaa !55
  %30 = getelementptr inbounds nuw %struct.Dch_Pars_t_, ptr %29, i32 0, i32 6
  %31 = load i32, ptr %30, align 8, !tbaa !59
  %32 = load ptr, ptr %4, align 8, !tbaa !55
  %33 = getelementptr inbounds nuw %struct.Dch_Pars_t_, ptr %32, i32 0, i32 11
  %34 = load i32, ptr %33, align 4, !tbaa !65
  %35 = load ptr, ptr %4, align 8, !tbaa !55
  %36 = getelementptr inbounds nuw %struct.Dch_Pars_t_, ptr %35, i32 0, i32 13
  %37 = load i32, ptr %36, align 4, !tbaa !57
  %38 = call ptr @Dar_NewChoiceSynthesis(ptr noundef %28, i32 noundef 1, i32 noundef 1, i32 noundef %31, i32 noundef %34, i32 noundef %37)
  store ptr %38, ptr %7, align 8, !tbaa !52
  %39 = call i64 @Abc_Clock()
  %40 = load i64, ptr %12, align 8, !tbaa !25
  %41 = sub nsw i64 %39, %40
  %42 = load ptr, ptr %4, align 8, !tbaa !55
  %43 = getelementptr inbounds nuw %struct.Dch_Pars_t_, ptr %42, i32 0, i32 14
  store i64 %41, ptr %43, align 8, !tbaa !60
  %44 = load ptr, ptr %4, align 8, !tbaa !55
  %45 = getelementptr inbounds nuw %struct.Dch_Pars_t_, ptr %44, i32 0, i32 9
  %46 = load i32, ptr %45, align 4, !tbaa !66
  %47 = icmp ne i32 %46, 0
  br i1 %47, label %48, label %57

48:                                               ; preds = %2
  %49 = load ptr, ptr %7, align 8, !tbaa !52
  %50 = load ptr, ptr %4, align 8, !tbaa !55
  %51 = getelementptr inbounds nuw %struct.Dch_Pars_t_, ptr %50, i32 0, i32 1
  %52 = load i32, ptr %51, align 4, !tbaa !67
  %53 = load ptr, ptr %4, align 8, !tbaa !55
  %54 = getelementptr inbounds nuw %struct.Dch_Pars_t_, ptr %53, i32 0, i32 13
  %55 = load i32, ptr %54, align 4, !tbaa !57
  %56 = call ptr @Cec_ComputeChoicesNew(ptr noundef %49, i32 noundef %52, i32 noundef %55)
  store ptr %56, ptr %5, align 8, !tbaa !3
  br label %89

57:                                               ; preds = %2
  %58 = load ptr, ptr %4, align 8, !tbaa !55
  %59 = getelementptr inbounds nuw %struct.Dch_Pars_t_, ptr %58, i32 0, i32 10
  %60 = load i32, ptr %59, align 8, !tbaa !68
  %61 = icmp ne i32 %60, 0
  br i1 %61, label %62, label %71

62:                                               ; preds = %57
  %63 = load ptr, ptr %7, align 8, !tbaa !52
  %64 = load ptr, ptr %4, align 8, !tbaa !55
  %65 = getelementptr inbounds nuw %struct.Dch_Pars_t_, ptr %64, i32 0, i32 1
  %66 = load i32, ptr %65, align 4, !tbaa !67
  %67 = load ptr, ptr %4, align 8, !tbaa !55
  %68 = getelementptr inbounds nuw %struct.Dch_Pars_t_, ptr %67, i32 0, i32 13
  %69 = load i32, ptr %68, align 4, !tbaa !57
  %70 = call ptr @Cec_ComputeChoicesNew2(ptr noundef %63, i32 noundef %66, i32 noundef %69)
  store ptr %70, ptr %5, align 8, !tbaa !3
  br label %88

71:                                               ; preds = %57
  %72 = load ptr, ptr %4, align 8, !tbaa !55
  %73 = getelementptr inbounds nuw %struct.Dch_Pars_t_, ptr %72, i32 0, i32 7
  %74 = load i32, ptr %73, align 4, !tbaa !69
  %75 = icmp ne i32 %74, 0
  br i1 %75, label %76, label %80

76:                                               ; preds = %71
  %77 = load ptr, ptr %7, align 8, !tbaa !52
  %78 = load ptr, ptr %4, align 8, !tbaa !55
  %79 = call ptr @Cec_ComputeChoices(ptr noundef %77, ptr noundef %78)
  store ptr %79, ptr %5, align 8, !tbaa !3
  br label %87

80:                                               ; preds = %71
  %81 = load ptr, ptr %7, align 8, !tbaa !52
  %82 = call ptr @Gia_ManToAigSkip(ptr noundef %81, i32 noundef 3)
  store ptr %82, ptr %5, align 8, !tbaa !3
  %83 = load ptr, ptr %5, align 8, !tbaa !3
  store ptr %83, ptr %6, align 8, !tbaa !3
  %84 = load ptr, ptr %4, align 8, !tbaa !55
  %85 = call ptr @Dch_ComputeChoices(ptr noundef %83, ptr noundef %84)
  store ptr %85, ptr %5, align 8, !tbaa !3
  %86 = load ptr, ptr %6, align 8, !tbaa !3
  call void @Aig_ManStop(ptr noundef %86)
  br label %87

87:                                               ; preds = %80, %76
  br label %88

88:                                               ; preds = %87, %62
  br label %89

89:                                               ; preds = %88, %48
  %90 = load ptr, ptr %7, align 8, !tbaa !52
  call void @Gia_ManStop(ptr noundef %90)
  %91 = load ptr, ptr %5, align 8, !tbaa !3
  %92 = load ptr, ptr %3, align 8, !tbaa !3
  %93 = call ptr @Aig_ManOrderPios(ptr noundef %91, ptr noundef %92)
  store ptr %93, ptr %8, align 8, !tbaa !38
  %94 = load ptr, ptr %3, align 8, !tbaa !3
  call void @Aig_ManStop(ptr noundef %94)
  %95 = load ptr, ptr %5, align 8, !tbaa !3
  store ptr %95, ptr %6, align 8, !tbaa !3
  %96 = load ptr, ptr %8, align 8, !tbaa !38
  %97 = call ptr @Aig_ManDupDfsGuided(ptr noundef %95, ptr noundef %96)
  store ptr %97, ptr %5, align 8, !tbaa !3
  %98 = load ptr, ptr %6, align 8, !tbaa !3
  call void @Aig_ManStop(ptr noundef %98)
  %99 = load ptr, ptr %8, align 8, !tbaa !38
  call void @Vec_PtrFree(ptr noundef %99)
  %100 = load ptr, ptr %9, align 8, !tbaa !43
  %101 = load ptr, ptr %5, align 8, !tbaa !3
  %102 = getelementptr inbounds nuw %struct.Aig_Man_t_, ptr %101, i32 0, i32 44
  store ptr %100, ptr %102, align 8, !tbaa !62
  %103 = load ptr, ptr %5, align 8, !tbaa !3
  %104 = call i32 @Aig_ManChoiceLevel(ptr noundef %103)
  %105 = load ptr, ptr %5, align 8, !tbaa !3
  %106 = getelementptr inbounds nuw %struct.Aig_Man_t_, ptr %105, i32 0, i32 0
  %107 = load ptr, ptr %106, align 8, !tbaa !63
  %108 = icmp ne ptr %107, null
  br i1 %108, label %109, label %115

109:                                              ; preds = %89
  %110 = load ptr, ptr %5, align 8, !tbaa !3
  %111 = getelementptr inbounds nuw %struct.Aig_Man_t_, ptr %110, i32 0, i32 0
  %112 = load ptr, ptr %111, align 8, !tbaa !63
  call void @free(ptr noundef %112) #9
  %113 = load ptr, ptr %5, align 8, !tbaa !3
  %114 = getelementptr inbounds nuw %struct.Aig_Man_t_, ptr %113, i32 0, i32 0
  store ptr null, ptr %114, align 8, !tbaa !63
  br label %116

115:                                              ; preds = %89
  br label %116

116:                                              ; preds = %115, %109
  %117 = load ptr, ptr %5, align 8, !tbaa !3
  %118 = getelementptr inbounds nuw %struct.Aig_Man_t_, ptr %117, i32 0, i32 1
  %119 = load ptr, ptr %118, align 8, !tbaa !64
  %120 = icmp ne ptr %119, null
  br i1 %120, label %121, label %127

121:                                              ; preds = %116
  %122 = load ptr, ptr %5, align 8, !tbaa !3
  %123 = getelementptr inbounds nuw %struct.Aig_Man_t_, ptr %122, i32 0, i32 1
  %124 = load ptr, ptr %123, align 8, !tbaa !64
  call void @free(ptr noundef %124) #9
  %125 = load ptr, ptr %5, align 8, !tbaa !3
  %126 = getelementptr inbounds nuw %struct.Aig_Man_t_, ptr %125, i32 0, i32 1
  store ptr null, ptr %126, align 8, !tbaa !64
  br label %128

127:                                              ; preds = %116
  br label %128

128:                                              ; preds = %127, %121
  %129 = load ptr, ptr %10, align 8, !tbaa !46
  %130 = load ptr, ptr %5, align 8, !tbaa !3
  %131 = getelementptr inbounds nuw %struct.Aig_Man_t_, ptr %130, i32 0, i32 0
  store ptr %129, ptr %131, align 8, !tbaa !63
  %132 = load ptr, ptr %11, align 8, !tbaa !46
  %133 = load ptr, ptr %5, align 8, !tbaa !3
  %134 = getelementptr inbounds nuw %struct.Aig_Man_t_, ptr %133, i32 0, i32 1
  store ptr %132, ptr %134, align 8, !tbaa !64
  %135 = load ptr, ptr %5, align 8, !tbaa !3
  call void @llvm.lifetime.end.p0(i64 8, ptr %12) #9
  call void @llvm.lifetime.end.p0(i64 8, ptr %11) #9
  call void @llvm.lifetime.end.p0(i64 8, ptr %10) #9
  call void @llvm.lifetime.end.p0(i64 8, ptr %9) #9
  call void @llvm.lifetime.end.p0(i64 8, ptr %8) #9
  call void @llvm.lifetime.end.p0(i64 8, ptr %7) #9
  call void @llvm.lifetime.end.p0(i64 8, ptr %6) #9
  call void @llvm.lifetime.end.p0(i64 8, ptr %5) #9
  ret ptr %135
}