; Function Attrs: nounwind uwtable
define ptr @Dar_ManChoiceNew(ptr noundef %0, ptr noundef initializes((56, 64)) %1) local_unnamed_addr #0 {
  %3 = alloca %struct.timespec, align 8
  %4 = alloca %struct.timespec, align 8
  %5 = getelementptr inbounds nuw i8, ptr %0, i64 352
  %6 = load ptr, ptr %5, align 8, !tbaa !55
  store ptr null, ptr %5, align 8, !tbaa !55
  %7 = load ptr, ptr %0, align 8, !tbaa !56
  %.not.i = icmp eq ptr %7, null
  br i1 %.not.i, label %Abc_UtilStrsav.exit, label %8

8:                                                ; preds = %2
  %9 = tail call i64 @strlen(ptr noundef nonnull readonly dereferenceable(1) %7) #15
  %10 = add i64 %9, 1
  %11 = tail call noalias ptr @malloc(i64 noundef %10) #14
  %12 = tail call ptr @strcpy(ptr noundef nonnull dereferenceable(1) %11, ptr noundef nonnull readonly dereferenceable(1) %7) #13
  br label %Abc_UtilStrsav.exit

Abc_UtilStrsav.exit:                              ; preds = %2, %8
  %13 = phi ptr [ %11, %8 ], [ null, %2 ]
  %14 = getelementptr inbounds nuw i8, ptr %0, i64 8
  %15 = load ptr, ptr %14, align 8, !tbaa !57
  %.not.i52 = icmp eq ptr %15, null
  br i1 %.not.i52, label %Abc_UtilStrsav.exit53, label %16

16:                                               ; preds = %Abc_UtilStrsav.exit
  %17 = tail call i64 @strlen(ptr noundef nonnull readonly dereferenceable(1) %15) #15
  %18 = add i64 %17, 1
  %19 = tail call noalias ptr @malloc(i64 noundef %18) #14
  %20 = tail call ptr @strcpy(ptr noundef nonnull dereferenceable(1) %19, ptr noundef nonnull readonly dereferenceable(1) %15) #13
  br label %Abc_UtilStrsav.exit53

Abc_UtilStrsav.exit53:                            ; preds = %Abc_UtilStrsav.exit, %16
  %21 = phi ptr [ %19, %16 ], [ null, %Abc_UtilStrsav.exit ]
  call void @llvm.lifetime.start.p0(i64 16, ptr nonnull %4) #13
  %22 = call i32 @clock_gettime(i32 noundef 1, ptr noundef nonnull %4) #13
  %23 = icmp slt i32 %22, 0
  br i1 %23, label %Abc_Clock.exit, label %24

24:                                               ; preds = %Abc_UtilStrsav.exit53
  %25 = load i64, ptr %4, align 8, !tbaa !27
  %.neg57 = mul i64 %25, -1000000
  %26 = getelementptr inbounds nuw i8, ptr %4, i64 8
  %27 = load i64, ptr %26, align 8, !tbaa !29
  %.neg = sdiv i64 %27, -1000
  %.neg58 = add i64 %.neg, %.neg57
  br label %Abc_Clock.exit

Abc_Clock.exit:                                   ; preds = %Abc_UtilStrsav.exit53, %24
  %.0.i.neg = phi i64 [ %.neg58, %24 ], [ 1, %Abc_UtilStrsav.exit53 ]
  call void @llvm.lifetime.end.p0(i64 16, ptr nonnull %4) #13
  %28 = call ptr @Aig_ManDupDfs(ptr noundef nonnull %0) #13
  %29 = getelementptr inbounds nuw i8, ptr %1, i64 24
  %30 = load i32, ptr %29, align 8, !tbaa !52
  %31 = getelementptr inbounds nuw i8, ptr %1, i64 44
  %32 = load i32, ptr %31, align 4, !tbaa !58
  %33 = getelementptr inbounds nuw i8, ptr %1, i64 52
  %34 = load i32, ptr %33, align 4, !tbaa !50
  %35 = call ptr @Dar_NewChoiceSynthesis(ptr noundef %28, i32 noundef 1, i32 noundef 1, i32 noundef %30, i32 noundef %32, i32 noundef %34)
  call void @llvm.lifetime.start.p0(i64 16, ptr nonnull %3) #13
  %36 = call i32 @clock_gettime(i32 noundef 1, ptr noundef nonnull %3) #13
  %37 = icmp slt i32 %36, 0
  br i1 %37, label %Abc_Clock.exit55, label %38

38:                                               ; preds = %Abc_Clock.exit
  %39 = load i64, ptr %3, align 8, !tbaa !27
  %40 = mul nsw i64 %39, 1000000
  %41 = getelementptr inbounds nuw i8, ptr %3, i64 8
  %42 = load i64, ptr %41, align 8, !tbaa !29
  %43 = sdiv i64 %42, 1000
  %44 = add nsw i64 %43, %40
  br label %Abc_Clock.exit55

Abc_Clock.exit55:                                 ; preds = %Abc_Clock.exit, %38
  %.0.i54 = phi i64 [ %44, %38 ], [ -1, %Abc_Clock.exit ]
  call void @llvm.lifetime.end.p0(i64 16, ptr nonnull %3) #13
  %45 = add i64 %.0.i54, %.0.i.neg
  %46 = getelementptr inbounds nuw i8, ptr %1, i64 56
  store i64 %45, ptr %46, align 8, !tbaa !53
  %47 = getelementptr inbounds nuw i8, ptr %1, i64 36
  %48 = load i32, ptr %47, align 4, !tbaa !59
  %.not = icmp eq i32 %48, 0
  br i1 %.not, label %54, label %49

49:                                               ; preds = %Abc_Clock.exit55
  %50 = getelementptr inbounds nuw i8, ptr %1, i64 4
  %51 = load i32, ptr %50, align 4, !tbaa !60
  %52 = load i32, ptr %33, align 4, !tbaa !50
  %53 = call ptr @Cec_ComputeChoicesNew(ptr noundef %35, i32 noundef %51, i32 noundef %52) #13
  br label %70

54:                                               ; preds = %Abc_Clock.exit55
  %55 = getelementptr inbounds nuw i8, ptr %1, i64 40
  %56 = load i32, ptr %55, align 8, !tbaa !61
  %.not48 = icmp eq i32 %56, 0
  br i1 %.not48, label %62, label %57

57:                                               ; preds = %54
  %58 = getelementptr inbounds nuw i8, ptr %1, i64 4
  %59 = load i32, ptr %58, align 4, !tbaa !60
  %60 = load i32, ptr %33, align 4, !tbaa !50
  %61 = call ptr @Cec_ComputeChoicesNew2(ptr noundef %35, i32 noundef %59, i32 noundef %60) #13
  br label %70

62:                                               ; preds = %54
  %63 = getelementptr inbounds nuw i8, ptr %1, i64 28
  %64 = load i32, ptr %63, align 4, !tbaa !62
  %.not49 = icmp eq i32 %64, 0
  br i1 %.not49, label %67, label %65

65:                                               ; preds = %62
  %66 = call ptr @Cec_ComputeChoices(ptr noundef %35, ptr noundef nonnull %1) #13
  br label %70

67:                                               ; preds = %62
  %68 = call ptr @Gia_ManToAigSkip(ptr noundef %35, i32 noundef 3) #13
  %69 = call ptr @Dch_ComputeChoices(ptr noundef %68, ptr noundef nonnull %1) #13
  call void @Aig_ManStop(ptr noundef %68) #13
  br label %70

70:                                               ; preds = %57, %67, %65, %49
  %.0 = phi ptr [ %53, %49 ], [ %61, %57 ], [ %66, %65 ], [ %69, %67 ]
  call void @Gia_ManStop(ptr noundef %35) #13
  %71 = call ptr @Aig_ManOrderPios(ptr noundef %.0, ptr noundef nonnull %0) #13
  call void @Aig_ManStop(ptr noundef nonnull %0) #13
  %72 = call ptr @Aig_ManDupDfsGuided(ptr noundef %.0, ptr noundef %71) #13
  call void @Aig_ManStop(ptr noundef %.0) #13
  %73 = getelementptr inbounds nuw i8, ptr %71, i64 8
  %74 = load ptr, ptr %73, align 8, !tbaa !36
  %.not.i56 = icmp eq ptr %74, null
  br i1 %.not.i56, label %Vec_PtrFree.exit, label %75

75:                                               ; preds = %70
  call void @free(ptr noundef nonnull %74) #13
  br label %Vec_PtrFree.exit

Vec_PtrFree.exit:                                 ; preds = %70, %75
  call void @free(ptr noundef nonnull %71) #13
  %76 = getelementptr inbounds nuw i8, ptr %72, i64 352
  store ptr %6, ptr %76, align 8, !tbaa !55
  %77 = call i32 @Aig_ManChoiceLevel(ptr noundef %72) #13
  %78 = load ptr, ptr %72, align 8, !tbaa !56
  %.not50 = icmp eq ptr %78, null
  br i1 %.not50, label %80, label %79

79:                                               ; preds = %Vec_PtrFree.exit
  call void @free(ptr noundef nonnull %78) #13
  store ptr null, ptr %72, align 8, !tbaa !56
  br label %80

80:                                               ; preds = %Vec_PtrFree.exit, %79
  %81 = getelementptr inbounds nuw i8, ptr %72, i64 8
  %82 = load ptr, ptr %81, align 8, !tbaa !57
  %.not51 = icmp eq ptr %82, null
  br i1 %.not51, label %84, label %83

83:                                               ; preds = %80
  call void @free(ptr noundef nonnull %82) #13
  br label %84

84:                                               ; preds = %80, %83
  store ptr %13, ptr %72, align 8, !tbaa !56
  store ptr %21, ptr %81, align 8, !tbaa !57
  ret ptr %72
}